target datalayout = "e-m:e-p270:32:32-p271:32:32-p272:64:64-i64:64-i128:128-f80:128-n8:16:32:64-S128"
target triple = "x86_64-pc-linux-gnu"

@.str.66 = private unnamed_addr constant [29 x i8] c"fixed point overflow ignored\00", align 1

; Function Attrs: nounwind uwtable
define hidden i32 @png_muldiv(ptr noundef %0, i32 noundef %1, i32 noundef %2, i32 noundef %3) #0 {
  %5 = alloca i32, align 4
  %6 = alloca ptr, align 8
  %7 = alloca i32, align 4
  %8 = alloca i32, align 4
  %9 = alloca i32, align 4
  %10 = alloca double, align 8
  store ptr %0, ptr %6, align 8
  store i32 %1, ptr %7, align 4
  store i32 %2, ptr %8, align 4
  store i32 %3, ptr %9, align 4
  %11 = load i32, ptr %9, align 4
  %12 = icmp ne i32 %11, 0
  br i1 %12, label %13, label %46

13:                                               ; preds = %4
  %14 = load i32, ptr %7, align 4
  %15 = icmp eq i32 %14, 0
  br i1 %15, label %19, label %16

16:                                               ; preds = %13
  %17 = load i32, ptr %8, align 4
  %18 = icmp eq i32 %17, 0
  br i1 %18, label %19, label %21

19:                                               ; preds = %16, %13
  %20 = load ptr, ptr %6, align 8
  store i32 0, ptr %20, align 4
  store i32 1, ptr %5, align 4
  br label %47

21:                                               ; preds = %16
  %22 = load i32, ptr %7, align 4
  %23 = sitofp i32 %22 to double
  store double %23, ptr %10, align 8
  %24 = load i32, ptr %8, align 4
  %25 = sitofp i32 %24 to double
  %26 = load double, ptr %10, align 8
  %27 = fmul double %26, %25
  store double %27, ptr %10, align 8
  %28 = load i32, ptr %9, align 4
  %29 = sitofp i32 %28 to double
  %30 = load double, ptr %10, align 8
  %31 = fdiv double %30, %29
  store double %31, ptr %10, align 8
  %32 = load double, ptr %10, align 8
  %33 = fadd double %32, 5.000000e-01
  %34 = call double @llvm.floor.f64(double %33)
  store double %34, ptr %10, align 8
  %35 = load double, ptr %10, align 8
  %36 = fcmp ole double %35, 0x41DFFFFFFFC00000
  br i1 %36, label %37, label %44

37:                                               ; preds = %21
  %38 = load double, ptr %10, align 8
  %39 = fcmp oge double %38, 0xC1E0000000000000
  br i1 %39, label %40, label %44

40:                                               ; preds = %37
  %41 = load double, ptr %10, align 8
  %42 = fptosi double %41 to i32
  %43 = load ptr, ptr %6, align 8
  store i32 %42, ptr %43, align 4
  store i32 1, ptr %5, align 4
  br label %47

44:                                               ; preds = %37, %21
  br label %45

45:                                               ; preds = %44
  br label %46

46:                                               ; preds = %45, %4
  store i32 0, ptr %5, align 4
  br label %47

47:                                               ; preds = %46, %40, %19
  %48 = load i32, ptr %5, align 4
  ret i32 %48
}

; Function Attrs: nounwind uwtable
define hidden i32 @png_muldiv_warn(ptr noalias noundef %0, i32 noundef %1, i32 noundef %2, i32 noundef %3) #0 {
  %5 = alloca i32, align 4
  %6 = alloca ptr, align 8
  %7 = alloca i32, align 4
  %8 = alloca i32, align 4
  %9 = alloca i32, align 4
  %10 = alloca i32, align 4
  store ptr %0, ptr %6, align 8
  store i32 %1, ptr %7, align 4
  store i32 %2, ptr %8, align 4
  store i32 %3, ptr %9, align 4
  %11 = load i32, ptr %7, align 4
  %12 = load i32, ptr %8, align 4
  %13 = load i32, ptr %9, align 4
  %14 = call i32 @png_muldiv(ptr noundef %10, i32 noundef %11, i32 noundef %12, i32 noundef %13)
  %15 = icmp ne i32 %14, 0
  br i1 %15, label %16, label %18

16:                                               ; preds = %4
  %17 = load i32, ptr %10, align 4
  store i32 %17, ptr %5, align 4
  br label %20

18:                                               ; preds = %4
  %19 = load ptr, ptr %6, align 8
  call void @png_warning(ptr noundef %19, ptr noundef @.str.66)
  store i32 0, ptr %5, align 4
  br label %20

20:                                               ; preds = %18, %16
  %21 = load i32, ptr %5, align 4
  ret i32 %21
}